target datalayout = "e-m:e-p270:32:32-p271:32:32-p272:64:64-i64:64-i128:128-f80:128-n8:16:32:64-S128"
target triple = "x86_64-pc-linux-gnu"

%struct.ldbState = type { ptr, i32, i32, ptr, ptr, ptr, [64 x i32], i32, i32, i32, ptr, i32, i32, ptr, i64, i32 }
%struct.lua_Debug = type { i32, ptr, ptr, ptr, ptr, i32, i32, i32, i32, [60 x i8], i32 }

@ldb = dso_local global %struct.ldbState zeroinitializer, align 8
@.str.106 = private unnamed_addr constant [9 x i8] c"<value> \00", align 1
@.str.107 = private unnamed_addr constant [5 x i8] c"ARGV\00", align 1
@.str.108 = private unnamed_addr constant [5 x i8] c"KEYS\00", align 1
@.str.109 = private unnamed_addr constant [18 x i8] c"No such variable.\00", align 1

; Function Attrs: nounwind uwtable
define dso_local ptr @ldbCatStackValue(ptr noundef %0, ptr noundef %1, i32 noundef %2) #0 {
  %4 = alloca ptr, align 8
  %5 = alloca ptr, align 8
  %6 = alloca i32, align 4
  store ptr %0, ptr %4, align 8, !tbaa !16
  store ptr %1, ptr %5, align 8, !tbaa !24
  store i32 %2, ptr %6, align 4, !tbaa !19
  %7 = load ptr, ptr %4, align 8, !tbaa !16
  %8 = load ptr, ptr %5, align 8, !tbaa !24
  %9 = load i32, ptr %6, align 4, !tbaa !19
  %10 = call ptr @ldbCatStackValueRec(ptr noundef %7, ptr noundef %8, i32 noundef %9, i32 noundef 0)
  ret ptr %10
}

; Function Attrs: nounwind uwtable
define dso_local void @ldbLog(ptr noundef %0) #0 {
  %2 = alloca ptr, align 8
  store ptr %0, ptr %2, align 8, !tbaa !16
  %3 = load ptr, ptr getelementptr inbounds nuw (%struct.ldbState, ptr @ldb, i32 0, i32 3), align 8, !tbaa !34
  %4 = load ptr, ptr %2, align 8, !tbaa !16
  %5 = call ptr @listAddNodeTail(ptr noundef %3, ptr noundef %4)
  ret void
}

; Function Attrs: nounwind uwtable
define dso_local void @ldbLogStackValue(ptr noundef %0, ptr noundef %1) #0 {
  %3 = alloca ptr, align 8
  %4 = alloca ptr, align 8
  %5 = alloca ptr, align 8
  store ptr %0, ptr %3, align 8, !tbaa !24
  store ptr %1, ptr %4, align 8, !tbaa !16
  call void @llvm.lifetime.start.p0(i64 8, ptr %5) #14
  %6 = load ptr, ptr %4, align 8, !tbaa !16
  %7 = call ptr @sdsnew(ptr noundef %6)
  store ptr %7, ptr %5, align 8, !tbaa !16
  %8 = load ptr, ptr %5, align 8, !tbaa !16
  %9 = load ptr, ptr %3, align 8, !tbaa !24
  %10 = call ptr @ldbCatStackValue(ptr noundef %8, ptr noundef %9, i32 noundef -1)
  store ptr %10, ptr %5, align 8, !tbaa !16
  %11 = load ptr, ptr %5, align 8, !tbaa !16
  call void @ldbLogWithMaxLen(ptr noundef %11)
  call void @llvm.lifetime.end.p0(i64 8, ptr %5) #14
  ret void
}

; Function Attrs: nounwind uwtable
define dso_local void @ldbPrint(ptr noundef %0, ptr noundef %1) #0 {
  %3 = alloca ptr, align 8
  %4 = alloca ptr, align 8
  %5 = alloca %struct.lua_Debug, align 8
  %6 = alloca i32, align 4
  %7 = alloca ptr, align 8
  %8 = alloca i32, align 4
  %9 = alloca i32, align 4
  store ptr %0, ptr %3, align 8, !tbaa !24
  store ptr %1, ptr %4, align 8, !tbaa !16
  call void @llvm.lifetime.start.p0(i64 120, ptr %5) #14
  call void @llvm.lifetime.start.p0(i64 4, ptr %6) #14
  store i32 0, ptr %6, align 4, !tbaa !19
  br label %10

10:                                               ; preds = %39, %2
  %11 = load ptr, ptr %3, align 8, !tbaa !24
  %12 = load i32, ptr %6, align 4, !tbaa !19
  %13 = call i32 @lua_getstack(ptr noundef %11, i32 noundef %12, ptr noundef %5)
  %14 = icmp ne i32 %13, 0
  br i1 %14, label %15, label %40

15:                                               ; preds = %10
  %16 = load i32, ptr %6, align 4, !tbaa !19
  %17 = add nsw i32 %16, 1
  store i32 %17, ptr %6, align 4, !tbaa !19
  call void @llvm.lifetime.start.p0(i64 8, ptr %7) #14
  call void @llvm.lifetime.start.p0(i64 4, ptr %8) #14
  store i32 1, ptr %8, align 4, !tbaa !19
  br label %18

18:                                               ; preds = %35, %15
  %19 = load ptr, ptr %3, align 8, !tbaa !24
  %20 = load i32, ptr %8, align 4, !tbaa !19
  %21 = call ptr @lua_getlocal(ptr noundef %19, ptr noundef %5, i32 noundef %20)
  store ptr %21, ptr %7, align 8, !tbaa !16
  %22 = icmp ne ptr %21, null
  br i1 %22, label %23, label %36

23:                                               ; preds = %18
  %24 = load i32, ptr %8, align 4, !tbaa !19
  %25 = add nsw i32 %24, 1
  store i32 %25, ptr %8, align 4, !tbaa !19
  %26 = load ptr, ptr %4, align 8, !tbaa !16
  %27 = load ptr, ptr %7, align 8, !tbaa !16
  %28 = call i32 @strcmp(ptr noundef %26, ptr noundef %27) #13
  %29 = icmp eq i32 %28, 0
  br i1 %29, label %30, label %33

30:                                               ; preds = %23
  %31 = load ptr, ptr %3, align 8, !tbaa !24
  call void @ldbLogStackValue(ptr noundef %31, ptr noundef @.str.106)
  %32 = load ptr, ptr %3, align 8, !tbaa !24
  call void @lua_settop(ptr noundef %32, i32 noundef -2)
  store i32 1, ptr %9, align 4
  br label %37

33:                                               ; preds = %23
  %34 = load ptr, ptr %3, align 8, !tbaa !24
  call void @lua_settop(ptr noundef %34, i32 noundef -2)
  br label %35

35:                                               ; preds = %33
  br label %18, !llvm.loop !178

36:                                               ; preds = %18
  store i32 0, ptr %9, align 4
  br label %37

37:                                               ; preds = %36, %30
  call void @llvm.lifetime.end.p0(i64 4, ptr %8) #14
  call void @llvm.lifetime.end.p0(i64 8, ptr %7) #14
  %38 = load i32, ptr %9, align 4
  switch i32 %38, label %56 [
    i32 0, label %39
  ]

39:                                               ; preds = %37
  br label %10, !llvm.loop !179

40:                                               ; preds = %10
  %41 = load ptr, ptr %4, align 8, !tbaa !16
  %42 = call i32 @strcmp(ptr noundef %41, ptr noundef @.str.107) #13
  %43 = icmp ne i32 %42, 0
  br i1 %43, label %44, label %48

44:                                               ; preds = %40
  %45 = load ptr, ptr %4, align 8, !tbaa !16
  %46 = call i32 @strcmp(ptr noundef %45, ptr noundef @.str.108) #13
  %47 = icmp ne i32 %46, 0
  br i1 %47, label %53, label %48

48:                                               ; preds = %44, %40
  %49 = load ptr, ptr %3, align 8, !tbaa !24
  %50 = load ptr, ptr %4, align 8, !tbaa !16
  call void @lua_getfield(ptr noundef %49, i32 noundef -10002, ptr noundef %50)
  %51 = load ptr, ptr %3, align 8, !tbaa !24
  call void @ldbLogStackValue(ptr noundef %51, ptr noundef @.str.106)
  %52 = load ptr, ptr %3, align 8, !tbaa !24
  call void @lua_settop(ptr noundef %52, i32 noundef -2)
  br label %55

53:                                               ; preds = %44
  %54 = call ptr @sdsnew(ptr noundef @.str.109)
  call void @ldbLog(ptr noundef %54)
  br label %55

55:                                               ; preds = %53, %48
  store i32 0, ptr %9, align 4
  br label %56

56:                                               ; preds = %55, %37
  call void @llvm.lifetime.end.p0(i64 4, ptr %6) #14
  call void @llvm.lifetime.end.p0(i64 120, ptr %5) #14
  %57 = load i32, ptr %9, align 4
  switch i32 %57, label %59 [
    i32 0, label %58
    i32 1, label %58
  ]

58:                                               ; preds = %56, %56
  ret void

59:                                               ; preds = %56
  unreachable
}