; Function Attrs: nounwind uwtable
define dso_local void @ldbPrint(ptr noundef %0, ptr noundef %1) local_unnamed_addr #0 {
  %3 = alloca %struct.lua_Debug, align 8
  call void @llvm.lifetime.start.p0(i64 120, ptr nonnull %3) #19
  %4 = call i32 @lua_getstack(ptr noundef %0, i32 noundef 0, ptr noundef nonnull %3) #19
  %.not25 = icmp eq i32 %4, 0
  br i1 %.not25, label %.critedge._crit_edge, label %.lr.ph27

.critedge.loopexit:                               ; preds = %14, %.lr.ph27
  %5 = call i32 @lua_getstack(ptr noundef %0, i32 noundef %6, ptr noundef nonnull %3) #19
  %.not = icmp eq i32 %5, 0
  br i1 %.not, label %.critedge._crit_edge, label %.lr.ph27

.lr.ph27:                                         ; preds = %2, %.critedge.loopexit
  %.01826 = phi i32 [ %6, %.critedge.loopexit ], [ 0, %2 ]
  %6 = add nuw nsw i32 %.01826, 1
  %7 = call ptr @lua_getlocal(ptr noundef %0, ptr noundef nonnull %3, i32 noundef 1) #19
  %.not2223 = icmp eq ptr %7, null
  br i1 %.not2223, label %.critedge.loopexit, label %.lr.ph

.lr.ph:                                           ; preds = %.lr.ph27, %14
  %8 = phi ptr [ %16, %14 ], [ %7, %.lr.ph27 ]
  %.01724 = phi i32 [ %15, %14 ], [ 1, %.lr.ph27 ]
  %9 = call i32 @strcmp(ptr noundef nonnull dereferenceable(1) %1, ptr noundef nonnull dereferenceable(1) %8) #18
  %10 = icmp eq i32 %9, 0
  br i1 %10, label %11, label %14

11:                                               ; preds = %.lr.ph
  %12 = call ptr @sdsnew(ptr noundef nonnull @.str.106) #19
  %13 = call ptr @ldbCatStackValueRec(ptr noundef %12, ptr noundef %0, i32 noundef -1, i32 noundef 0)
  call void @ldbLogWithMaxLen(ptr noundef %13)
  call void @lua_settop(ptr noundef %0, i32 noundef -2) #19
  br label %27, !llvm.loop !161

14:                                               ; preds = %.lr.ph
  %15 = add nuw nsw i32 %.01724, 1
  call void @lua_settop(ptr noundef %0, i32 noundef -2) #19
  %16 = call ptr @lua_getlocal(ptr noundef %0, ptr noundef nonnull %3, i32 noundef %15) #19
  %.not22 = icmp eq ptr %16, null
  br i1 %.not22, label %.critedge.loopexit, label %.lr.ph, !llvm.loop !162

.critedge._crit_edge:                             ; preds = %.critedge.loopexit, %2
  %17 = call i32 @strcmp(ptr noundef nonnull dereferenceable(1) %1, ptr noundef nonnull dereferenceable(5) @.str.107) #18
  %.not20 = icmp eq i32 %17, 0
  br i1 %.not20, label %20, label %18

18:                                               ; preds = %.critedge._crit_edge
  %19 = call i32 @strcmp(ptr noundef nonnull dereferenceable(1) %1, ptr noundef nonnull dereferenceable(5) @.str.108) #18
  %.not21 = icmp eq i32 %19, 0
  br i1 %.not21, label %20, label %23

20:                                               ; preds = %18, %.critedge._crit_edge
  call void @lua_getfield(ptr noundef %0, i32 noundef -10002, ptr noundef nonnull %1) #19
  %21 = call ptr @sdsnew(ptr noundef nonnull @.str.106) #19
  %22 = call ptr @ldbCatStackValueRec(ptr noundef %21, ptr noundef %0, i32 noundef -1, i32 noundef 0)
  call void @ldbLogWithMaxLen(ptr noundef %22)
  call void @lua_settop(ptr noundef %0, i32 noundef -2) #19
  br label %27

23:                                               ; preds = %18
  %24 = call ptr @sdsnew(ptr noundef nonnull @.str.109) #19
  %25 = load ptr, ptr getelementptr inbounds nuw (i8, ptr @ldb, i64 16), align 8, !tbaa !26
  %26 = call ptr @listAddNodeTail(ptr noundef %25, ptr noundef %24) #19
  br label %27

27:                                               ; preds = %11, %20, %23
  call void @llvm.lifetime.end.p0(i64 120, ptr nonnull %3) #19
  ret void
}